Certificate:
    Data:
        Version: 3 (0x2)
        Serial Number: 2 (0x2)
    Signature Algorithm: sha1WithRSAEncryption
        Issuer: C=cn, ST=BJ, L=BJ, O=abcdocker, OU=\, CN=abc/name=abc/emailAddress=1060289861@qq.com
        Validity
            Not Before: Oct 23 11:45:32 2021 GMT
            Not After : Oct 21 11:45:32 2031 GMT
        Subject: C=cn, ST=BJ, L=BJ, O=abcdocker, OU=abc, CN=client1/name=abc/emailAddress=1060289861@qq.com
        Subject Public Key Info:
            Public Key Algorithm: rsaEncryption
                Public-Key: (4096 bit)
                Modulus:
                    00:bf:e6:1d:fc:5e:62:74:3b:11:79:42:59:31:98:
                    b6:95:5e:84:ae:9f:1c:6b:4c:48:c1:fa:0c:62:70:
                    ef:da:d0:29:17:14:fc:4f:c3:1c:cc:82:93:04:7a:
                    ea:ba:49:b9:4c:e9:b7:70:3a:f9:cf:10:04:51:9a:
                    70:af:04:b2:7d:8b:d1:60:57:78:52:ea:a9:55:aa:
                    8f:52:e7:3a:cf:8e:cd:b1:4f:dd:bd:81:f7:31:6a:
                    75:69:1a:d6:3b:63:3c:67:7f:02:5a:43:c3:d1:1a:
                    4d:3a:0c:84:22:87:6f:23:a2:45:6a:dc:66:4b:a9:
                    77:99:94:bd:57:e6:cb:a8:50:2d:b2:72:90:c7:ea:
                    61:02:86:3d:4d:26:ef:4b:fa:43:fa:a2:1e:d5:e9:
                    da:9d:6f:94:b1:b4:2d:5c:a6:d5:ba:af:bf:f9:35:
                    93:d3:04:75:e4:ce:23:e4:83:25:22:3a:c0:2c:a8:
                    43:92:25:99:01:88:53:e9:85:a8:39:2d:9e:19:39:
                    ef:28:7b:a0:c4:89:64:d6:67:3b:ce:53:99:f1:1a:
                    f6:65:46:98:2a:5d:fa:d8:c6:c0:3d:1e:02:95:71:
                    13:bd:5b:ce:87:10:d4:a8:37:19:3d:0b:48:47:d3:
                    1c:5c:5c:8a:5f:bd:c6:8e:72:c9:ce:8a:6f:24:68:
                    69:e7:da:ce:7a:74:c4:6e:a1:5c:26:42:2f:65:75:
                    ab:fe:b5:34:56:cb:f0:7c:d7:09:2e:96:24:00:bf:
                    24:73:22:b4:d1:07:9f:f4:7e:c4:06:9b:f0:94:e5:
                    f1:24:0d:6e:e0:0b:c9:0a:ff:ff:5d:31:4a:e0:3d:
                    ef:9e:2f:77:b1:ce:43:67:52:f0:62:c4:75:ac:52:
                    e6:83:00:5d:3d:4a:a7:e8:eb:87:08:b3:45:43:96:
                    d8:e4:d0:3f:08:43:27:db:21:4b:49:a2:f0:d0:39:
                    17:d5:48:52:d6:dc:21:8d:63:01:e9:3f:07:8b:c7:
                    7d:66:a0:e7:9d:ca:02:f7:cc:90:e1:f2:2e:97:35:
                    23:d8:f6:69:cb:fe:a4:f9:f6:c1:9a:63:75:bc:89:
                    7b:33:5f:ee:3f:f6:8c:f7:b7:0b:37:0c:6d:00:a7:
                    5d:a1:6e:2d:45:63:ea:e4:07:6f:05:66:4e:04:5c:
                    19:be:36:f3:c3:3d:e9:cf:ef:bb:af:35:a5:a9:09:
                    24:d8:18:b3:57:13:02:7b:26:be:02:34:84:8f:b1:
                    e2:a1:d0:b9:4c:2b:18:35:af:a9:14:0a:63:97:b7:
                    5c:4e:29:a0:3e:fe:1b:80:24:25:8f:29:75:28:bd:
                    14:c0:b5:7e:c6:23:4c:0e:97:37:65:47:3d:43:df:
                    0e:fa:81
                Exponent: 65537 (0x10001)
        X509v3 extensions:
            X509v3 Basic Constraints: 
                CA:FALSE
            Netscape Comment: 
                Easy-RSA Generated Certificate
            X509v3 Subject Key Identifier: 
                D3:1E:F3:8A:9B:02:83:FD:77:0B:0E:84:03:C0:C7:17:A1:CB:32:A1
            X509v3 Authority Key Identifier: 
                keyid:50:6F:7F:91:7E:93:F8:A9:DD:B6:47:2D:C1:DD:0B:9D:09:44:BB:C0
                DirName:/C=cn/ST=BJ/L=BJ/O=abcdocker/OU=\/CN=abc/name=abc/emailAddress=1060289861@qq.com
                serial:F1:40:C8:DA:2F:49:F5:8B

            X509v3 Extended Key Usage: 
                TLS Web Client Authentication
            X509v3 Key Usage: 
                Digital Signature
    Signature Algorithm: sha1WithRSAEncryption
         b2:c5:a0:09:77:4c:34:4b:f5:e9:d4:93:5f:1f:6d:3e:d8:c0:
         58:07:43:7c:b8:c0:72:bc:5d:97:97:72:c0:a0:93:ce:df:a7:
         be:07:a0:d3:ec:2a:8f:4c:92:1b:0c:2d:d9:90:75:51:43:4e:
         a1:68:d6:19:a7:8b:97:1f:bc:76:3c:08:5b:4a:21:c0:f6:52:
         3b:78:61:4a:29:06:c8:3a:45:1b:59:66:93:54:41:06:9b:45:
         a3:23:b6:42:e7:78:c9:d3:d0:84:77:bd:42:73:ab:3d:6f:45:
         77:4a:61:4c:a8:ee:22:ce:7e:4a:6b:c0:fb:38:06:e0:33:16:
         43:03:86:91:0f:3a:0c:d6:1f:2d:20:0c:3d:f5:97:b6:13:6f:
         00:aa:e0:80:f2:78:4f:0a:d9:1e:14:df:ac:34:cb:b2:0f:2e:
         5c:b6:4d:ba:8b:6c:dd:ec:b8:a4:9e:fd:d8:17:d0:44:2f:f6:
         44:6e:4d:23:f6:99:89:e0:ab:63:c3:23:ae:dd:14:52:43:13:
         39:40:26:bc:f7:20:25:20:65:b4:c7:76:15:bc:f4:11:a9:94:
         4d:4b:ec:20:6d:b2:ad:c0:18:4a:d9:f1:a1:e3:a6:59:a1:2d:
         3b:cd:75:ae:f0:ae:72:5b:1b:5b:a1:91:04:89:a3:b9:ce:60:
         67:55:b2:96:12:92:b9:7d:66:1e:90:e9:29:69:68:73:84:a4:
         5c:83:00:16:a5:33:02:20:fd:87:e7:34:96:24:6a:63:c9:5b:
         20:a8:f3:a4:8b:2f:a8:83:c9:e0:40:3f:39:e1:5a:fc:d3:b9:
         14:0a:9f:13:1f:51:79:12:8b:85:c9:92:4d:b8:8e:d2:e1:c9:
         bb:9f:19:d4:0b:ff:c2:17:57:9c:e6:76:04:60:30:d0:b7:0e:
         89:19:35:b0:1d:fd:79:35:d5:00:51:5b:fa:ea:0b:2d:c4:ad:
         a0:03:a4:6f:79:41:7b:b3:f6:a8:65:31:17:f7:06:17:53:24:
         c3:26:30:1c:54:4e:bd:27:0e:32:bd:1f:e4:0a:74:b7:4b:2c:
         ef:4e:45:97:0b:ad:f6:66:9b:8f:3a:a0:06:fb:fe:ea:95:40:
         ec:98:7b:83:88:98:cd:79:8a:6f:b6:58:77:58:51:3b:d1:65:
         5e:a5:f6:8c:e5:61:4a:d5:04:ad:04:29:b8:19:58:ef:19:cb:
         1c:2b:0b:d8:25:90:07:59:d3:de:fa:35:1d:42:83:3e:7b:fa:
         5e:d9:eb:c4:f2:47:e7:7b:b7:b4:73:67:ea:35:a8:c2:3e:cd:
         99:e3:af:e7:64:7a:ab:4a:2c:93:f8:21:cd:ed:be:9e:f8:f0:
         e7:28:06:9d:8b:b8:83:2a
-----BEGIN CERTIFICATE-----
MIIGyzCCBLOgAwIBAgIBAjANBgkqhkiG9w0BAQUFADCBhTELMAkGA1UEBhMCY24x
CzAJBgNVBAgTAkJKMQswCQYDVQQHEwJCSjESMBAGA1UEChMJYWJjZG9ja2VyMQow
CAYDVQQLFAFcMQwwCgYDVQQDEwNhYmMxDDAKBgNVBCkTA2FiYzEgMB4GCSqGSIb3
DQEJARYRMTA2MDI4OTg2MUBxcS5jb20wHhcNMjExMDIzMTE0NTMyWhcNMzExMDIx
MTE0NTMyWjCBizELMAkGA1UEBhMCY24xCzAJBgNVBAgTAkJKMQswCQYDVQQHEwJC
SjESMBAGA1UEChMJYWJjZG9ja2VyMQwwCgYDVQQLEwNhYmMxEDAOBgNVBAMTB2Ns
aWVudDExDDAKBgNVBCkTA2FiYzEgMB4GCSqGSIb3DQEJARYRMTA2MDI4OTg2MUBx
cS5jb20wggIiMA0GCSqGSIb3DQEBAQUAA4ICDwAwggIKAoICAQC/5h38XmJ0OxF5
QlkxmLaVXoSunxxrTEjB+gxicO/a0CkXFPxPwxzMgpMEeuq6SblM6bdwOvnPEARR
mnCvBLJ9i9FgV3hS6qlVqo9S5zrPjs2xT929gfcxanVpGtY7YzxnfwJaQ8PRGk06
DIQih28jokVq3GZLqXeZlL1X5suoUC2ycpDH6mEChj1NJu9L+kP6oh7V6dqdb5Sx
tC1cptW6r7/5NZPTBHXkziPkgyUiOsAsqEOSJZkBiFPphag5LZ4ZOe8oe6DEiWTW
ZzvOU5nxGvZlRpgqXfrYxsA9HgKVcRO9W86HENSoNxk9C0hH0xxcXIpfvcaOcsnO
im8kaGnn2s56dMRuoVwmQi9ldav+tTRWy/B81wkuliQAvyRzIrTRB5/0fsQGm/CU
5fEkDW7gC8kK//9dMUrgPe+eL3exzkNnUvBixHWsUuaDAF09Sqfo64cIs0VDltjk
0D8IQyfbIUtJovDQORfVSFLW3CGNYwHpPweLx31moOedygL3zJDh8i6XNSPY9mnL
/qT59sGaY3W8iXszX+4/9oz3tws3DG0Ap12hbi1FY+rkB28FZk4EXBm+NvPDPenP
77uvNaWpCSTYGLNXEwJ7Jr4CNISPseKh0LlMKxg1r6kUCmOXt1xOKaA+/huAJCWP
KXUovRTAtX7GI0wOlzdlRz1D3w76gQIDAQABo4IBPDCCATgwCQYDVR0TBAIwADAt
BglghkgBhvhCAQ0EIBYeRWFzeS1SU0EgR2VuZXJhdGVkIENlcnRpZmljYXRlMB0G
A1UdDgQWBBTTHvOKmwKD/XcLDoQDwMcXocsyoTCBugYDVR0jBIGyMIGvgBRQb3+R
fpP4qd22Ry3B3QudCUS7wKGBi6SBiDCBhTELMAkGA1UEBhMCY24xCzAJBgNVBAgT
AkJKMQswCQYDVQQHEwJCSjESMBAGA1UEChMJYWJjZG9ja2VyMQowCAYDVQQLFAFc
MQwwCgYDVQQDEwNhYmMxDDAKBgNVBCkTA2FiYzEgMB4GCSqGSIb3DQEJARYRMTA2
MDI4OTg2MUBxcS5jb22CCQDxQMjaL0n1izATBgNVHSUEDDAKBggrBgEFBQcDAjAL
BgNVHQ8EBAMCB4AwDQYJKoZIhvcNAQEFBQADggIBALLFoAl3TDRL9enUk18fbT7Y
wFgHQ3y4wHK8XZeXcsCgk87fp74HoNPsKo9MkhsMLdmQdVFDTqFo1hmni5cfvHY8
CFtKIcD2Ujt4YUopBsg6RRtZZpNUQQabRaMjtkLneMnT0IR3vUJzqz1vRXdKYUyo
7iLOfkprwPs4BuAzFkMDhpEPOgzWHy0gDD31l7YTbwCq4IDyeE8K2R4U36w0y7IP
Lly2TbqLbN3suKSe/dgX0EQv9kRuTSP2mYngq2PDI67dFFJDEzlAJrz3ICUgZbTH
dhW89BGplE1L7CBtsq3AGErZ8aHjplmhLTvNda7wrnJbG1uhkQSJo7nOYGdVspYS
krl9Zh6Q6SlpaHOEpFyDABalMwIg/YfnNJYkamPJWyCo86SLL6iDyeBAPznhWvzT
uRQKnxMfUXkSi4XJkk24jtLhybufGdQL/8IXV5zmdgRgMNC3DokZNbAd/Xk11QBR
W/rqCy3EraADpG95QXuz9qhlMRf3BhdTJMMmMBxUTr0nDjK9H+QKdLdLLO9ORZcL
rfZmm486oAb7/uqVQOyYe4OImM15im+2WHdYUTvRZV6l9ozlYUrVBK0EKbgZWO8Z
yxwrC9glkAdZ0976NR1Cgz57+l7Z68TyR+d7t7RzZ+o1qMI+zZnjr+dkeqtKLJP4
Ic3tvp748OcoBp2LuIMq
-----END CERTIFICATE-----
